; Function Attrs: mustprogress uwtable
define void @_ZNK7rocksdb24PessimisticTransactionDB22GetTimestampedSnapshotEm(ptr dead_on_unwind noalias writable writeonly sret(%"class.std::shared_ptr.447") align 8 captures(none) initializes((0, 16)) %0, ptr noundef nonnull readonly align 8 captures(none) dereferenceable(520) %1, i64 noundef %2) unnamed_addr #4 align 2 personality ptr @__gxx_personality_v0 {
_ZNSt12__shared_ptrIKN7rocksdb12SnapshotImplELN9__gnu_cxx12_Lock_policyE2EED2Ev.exit:
  %3 = alloca %"class.std::shared_ptr.565", align 8
  call void @llvm.lifetime.start.p0(i64 16, ptr nonnull %3) #28
  %4 = getelementptr inbounds nuw i8, ptr %1, i64 32
  %5 = load ptr, ptr %4, align 8, !tbaa !28
  call void @_ZNK7rocksdb6DBImpl22GetTimestampedSnapshotEm(ptr dead_on_unwind nonnull writable sret(%"class.std::shared_ptr.565") align 8 %3, ptr noundef nonnull align 64 dereferenceable(6868) %5, i64 noundef %2)
  %6 = load ptr, ptr %3, align 8, !tbaa !538
  store ptr %6, ptr %0, align 8, !tbaa !541
  %7 = getelementptr inbounds nuw i8, ptr %0, i64 8
  %8 = getelementptr inbounds nuw i8, ptr %3, i64 8
  %9 = load ptr, ptr %8, align 8, !tbaa !77
  store ptr %9, ptr %7, align 8, !tbaa !77
  call void @llvm.lifetime.end.p0(i64 16, ptr nonnull %3) #28
  ret void
}